; Function Attrs: mustprogress uwtable
define internal fastcc void @"_ZSt22__stable_sort_adaptiveIPP4exprS2_lN9__gnu_cxx5__ops15_Iter_comp_iterIZN8intblast6solver15sorted_subtermsER10ref_vectorIS0_11ast_managerER10ptr_vectorIS0_EE3$_0EEEvT_SH_T0_T1_T2_"(ptr noundef %0, ptr noundef %1, ptr noundef %2, i64 noundef %3) unnamed_addr #3 {
  %5 = ptrtoint ptr %1 to i64
  %6 = ptrtoint ptr %0 to i64
  %7 = sub i64 %5, %6
  %8 = ashr exact i64 %7, 3
  %9 = add nsw i64 %8, 1
  %10 = sdiv i64 %9, 2
  %11 = getelementptr inbounds ptr, ptr %0, i64 %10
  %12 = icmp sgt i64 %10, %3
  br i1 %12, label %13, label %14

13:                                               ; preds = %4
  tail call fastcc void @"_ZSt22__stable_sort_adaptiveIPP4exprS2_lN9__gnu_cxx5__ops15_Iter_comp_iterIZN8intblast6solver15sorted_subtermsER10ref_vectorIS0_11ast_managerER10ptr_vectorIS0_EE3$_0EEEvT_SH_T0_T1_T2_"(ptr noundef %0, ptr noundef %11, ptr noundef %2, i64 noundef %3)
  tail call fastcc void @"_ZSt22__stable_sort_adaptiveIPP4exprS2_lN9__gnu_cxx5__ops15_Iter_comp_iterIZN8intblast6solver15sorted_subtermsER10ref_vectorIS0_11ast_managerER10ptr_vectorIS0_EE3$_0EEEvT_SH_T0_T1_T2_"(ptr noundef %11, ptr noundef %1, ptr noundef %2, i64 noundef %3)
  br label %15

14:                                               ; preds = %4
  tail call fastcc void @"_ZSt24__merge_sort_with_bufferIPP4exprS2_N9__gnu_cxx5__ops15_Iter_comp_iterIZN8intblast6solver15sorted_subtermsER10ref_vectorIS0_11ast_managerER10ptr_vectorIS0_EE3$_0EEEvT_SH_T0_T1_"(ptr noundef %0, ptr noundef %11, ptr noundef %2)
  tail call fastcc void @"_ZSt24__merge_sort_with_bufferIPP4exprS2_N9__gnu_cxx5__ops15_Iter_comp_iterIZN8intblast6solver15sorted_subtermsER10ref_vectorIS0_11ast_managerER10ptr_vectorIS0_EE3$_0EEEvT_SH_T0_T1_"(ptr noundef %11, ptr noundef %1, ptr noundef %2)
  br label %15

15:                                               ; preds = %14, %13
  %16 = ptrtoint ptr %11 to i64
  %17 = sub i64 %5, %16
  %18 = ashr exact i64 %17, 3
  tail call fastcc void @"_ZSt16__merge_adaptiveIPP4exprlS2_N9__gnu_cxx5__ops15_Iter_comp_iterIZN8intblast6solver15sorted_subtermsER10ref_vectorIS0_11ast_managerER10ptr_vectorIS0_EE3$_0EEEvT_SH_SH_T0_SI_T1_SI_T2_"(ptr noundef %0, ptr noundef %11, ptr noundef %1, i64 noundef %10, i64 noundef %18, ptr noundef %2, i64 noundef %3)
  ret void
}